target datalayout = "e-m:e-p270:32:32-p271:32:32-p272:64:64-i64:64-i128:128-f80:128-n8:16:32:64-S128"
target triple = "x86_64-pc-linux-gnu"

%struct.LZ4F_frameInfo_t = type { i32, i32, i32, i32, i64, i32, i32 }
%struct.lz4_writer = type { i32, i64, i64, i64, i64, i64, ptr, i32, ptr, %struct.LZ4F_preferences_t, ptr }
%struct.LZ4F_preferences_t = type { %struct.LZ4F_frameInfo_t, i32, i32, i32, [3 x i32] }

; Function Attrs: alwaysinline nounwind
define internal ptr @memset.inline(ptr %0, i32 %1, i64 %2) #10 {
  %4 = alloca ptr, align 8
  %5 = alloca i32, align 4
  %6 = alloca i64, align 8
  store ptr %0, ptr %4, align 8
  store i32 %1, ptr %5, align 4
  store i64 %2, ptr %6, align 8
  %7 = load ptr, ptr %4, align 8
  %8 = load i32, ptr %5, align 4
  %9 = load i64, ptr %6, align 8
  %10 = load ptr, ptr %4, align 8
  %11 = call i64 @llvm.objectsize.i64.p0(ptr %10, i1 false, i1 true, i1 true)
  %12 = call ptr @__memset_chk(ptr noundef %7, i32 noundef %8, i64 noundef %9, i64 noundef %11) #14
  ret ptr %12
}

; Function Attrs: null_pointer_is_valid sspstrong uwtable
define hidden ptr @lz4wfile_fdopen(i32 noundef %0) #0 {
  %2 = alloca ptr, align 8
  %3 = alloca i32, align 4
  %4 = alloca ptr, align 8
  %5 = alloca i32, align 4
  store i32 %0, ptr %3, align 4
  call void @llvm.lifetime.start.p0(i64 8, ptr %4) #14
  %6 = call noalias ptr @g_try_malloc(i64 noundef 136) #16
  store ptr %6, ptr %4, align 8
  %7 = load ptr, ptr %4, align 8
  %8 = icmp eq ptr %7, null
  br i1 %8, label %9, label %10

9:                                                ; preds = %1
  store ptr null, ptr %2, align 8
  store i32 1, ptr %5, align 4
  br label %53

10:                                               ; preds = %1
  %11 = load i32, ptr %3, align 4
  %12 = load ptr, ptr %4, align 8
  %13 = getelementptr inbounds nuw %struct.lz4_writer, ptr %12, i32 0, i32 0
  store i32 %11, ptr %13, align 8
  %14 = load ptr, ptr %4, align 8
  %15 = getelementptr inbounds nuw %struct.lz4_writer, ptr %14, i32 0, i32 3
  store i64 0, ptr %15, align 8
  %16 = load ptr, ptr %4, align 8
  %17 = getelementptr inbounds nuw %struct.lz4_writer, ptr %16, i32 0, i32 4
  store i64 4194304, ptr %17, align 8
  %18 = load ptr, ptr %4, align 8
  %19 = getelementptr inbounds nuw %struct.lz4_writer, ptr %18, i32 0, i32 4
  %20 = load i64, ptr %19, align 8
  %21 = load ptr, ptr %4, align 8
  %22 = getelementptr inbounds nuw %struct.lz4_writer, ptr %21, i32 0, i32 9
  %23 = call i64 @LZ4F_compressBound(i64 noundef %20, ptr noundef %22)
  %24 = load ptr, ptr %4, align 8
  %25 = getelementptr inbounds nuw %struct.lz4_writer, ptr %24, i32 0, i32 5
  store i64 %23, ptr %25, align 8
  %26 = load ptr, ptr %4, align 8
  %27 = getelementptr inbounds nuw %struct.lz4_writer, ptr %26, i32 0, i32 9
  %28 = call ptr @memset.inline(ptr noundef %27, i32 noundef 0, i64 noundef 56) #14
  %29 = load ptr, ptr %4, align 8
  %30 = getelementptr inbounds nuw %struct.lz4_writer, ptr %29, i32 0, i32 9
  %31 = getelementptr inbounds nuw %struct.LZ4F_preferences_t, ptr %30, i32 0, i32 0
  %32 = getelementptr inbounds nuw %struct.LZ4F_frameInfo_t, ptr %31, i32 0, i32 1
  store i32 1, ptr %32, align 4
  %33 = load ptr, ptr %4, align 8
  %34 = getelementptr inbounds nuw %struct.lz4_writer, ptr %33, i32 0, i32 9
  %35 = getelementptr inbounds nuw %struct.LZ4F_preferences_t, ptr %34, i32 0, i32 0
  %36 = getelementptr inbounds nuw %struct.LZ4F_frameInfo_t, ptr %35, i32 0, i32 2
  store i32 1, ptr %36, align 8
  %37 = load ptr, ptr %4, align 8
  %38 = getelementptr inbounds nuw %struct.lz4_writer, ptr %37, i32 0, i32 9
  %39 = getelementptr inbounds nuw %struct.LZ4F_preferences_t, ptr %38, i32 0, i32 0
  %40 = getelementptr inbounds nuw %struct.LZ4F_frameInfo_t, ptr %39, i32 0, i32 0
  store i32 7, ptr %40, align 8
  %41 = load ptr, ptr %4, align 8
  %42 = getelementptr inbounds nuw %struct.lz4_writer, ptr %41, i32 0, i32 9
  %43 = getelementptr inbounds nuw %struct.LZ4F_preferences_t, ptr %42, i32 0, i32 1
  store i32 1, ptr %43, align 8
  %44 = load ptr, ptr %4, align 8
  %45 = getelementptr inbounds nuw %struct.lz4_writer, ptr %44, i32 0, i32 7
  store i32 0, ptr %45, align 8
  %46 = load ptr, ptr %4, align 8
  %47 = getelementptr inbounds nuw %struct.lz4_writer, ptr %46, i32 0, i32 8
  store ptr null, ptr %47, align 8
  %48 = load ptr, ptr %4, align 8
  %49 = getelementptr inbounds nuw %struct.lz4_writer, ptr %48, i32 0, i32 1
  store i64 0, ptr %49, align 8
  %50 = load ptr, ptr %4, align 8
  %51 = getelementptr inbounds nuw %struct.lz4_writer, ptr %50, i32 0, i32 2
  store i64 0, ptr %51, align 8
  %52 = load ptr, ptr %4, align 8
  store ptr %52, ptr %2, align 8
  store i32 1, ptr %5, align 4
  br label %53

53:                                               ; preds = %10, %9
  call void @llvm.lifetime.end.p0(i64 8, ptr %4) #14
  %54 = load ptr, ptr %2, align 8
  ret ptr %54
}