; Function Attrs: null_pointer_is_valid sspstrong uwtable
define hidden noundef ptr @lz4wfile_fdopen(i32 noundef %0) local_unnamed_addr #0 {
  %2 = tail call noalias dereferenceable_or_null(136) ptr @g_try_malloc(i64 noundef 136) #22
  %3 = icmp eq ptr %2, null
  br i1 %3, label %17, label %4

4:                                                ; preds = %1
  store i32 %0, ptr %2, align 8
  %5 = getelementptr inbounds nuw i8, ptr %2, i64 24
  store i64 0, ptr %5, align 8
  %6 = getelementptr inbounds nuw i8, ptr %2, i64 32
  store i64 4194304, ptr %6, align 8
  %7 = getelementptr inbounds nuw i8, ptr %2, i64 72
  %8 = tail call i64 @LZ4F_compressBound(i64 noundef 4194304, ptr noundef nonnull %7)
  %9 = getelementptr inbounds nuw i8, ptr %2, i64 40
  store i64 %8, ptr %9, align 8
  %10 = getelementptr inbounds nuw i8, ptr %2, i64 84
  tail call void @llvm.memset.p0.i64(ptr noundef nonnull align 1 dereferenceable(56) %10, i8 noundef 0, i64 noundef 44, i1 noundef false) #21
  %11 = getelementptr inbounds nuw i8, ptr %2, i64 76
  store i32 1, ptr %11, align 4
  %12 = getelementptr inbounds nuw i8, ptr %2, i64 80
  store i32 1, ptr %12, align 8
  store i32 7, ptr %7, align 8
  %13 = getelementptr inbounds nuw i8, ptr %2, i64 104
  store i32 1, ptr %13, align 8
  %14 = getelementptr inbounds nuw i8, ptr %2, i64 56
  store i32 0, ptr %14, align 8
  %15 = getelementptr inbounds nuw i8, ptr %2, i64 64
  store ptr null, ptr %15, align 8
  %16 = getelementptr inbounds nuw i8, ptr %2, i64 8
  tail call void @llvm.memset.p0.i64(ptr noundef nonnull align 8 dereferenceable(16) %16, i8 0, i64 16, i1 false)
  br label %17

17:                                               ; preds = %1, %4
  ret ptr %2
}